	.file	"amrvac.f"
	.text
.Ltext0:
	.section	.rodata
.LC2:
	.ascii	"undefined"
	.align 4
.LC3:
	.long	1
	.align 8
.LC4:
	.long	0
	.long	0
.LC5:
	.ascii	"mpi"
.LC6:
	.ascii	"user"
	.align 8
.LC7:
	.ascii	"non-mpi conversion only uses 1 cpu"
	.section	.rodata.str1.1,"aMS",@progbits,1
.LC8:
	.string	"amrvac.f"
	.section	.rodata
	.align 8
.LC9:
	.ascii	"------------------------------------------------------------"
	.ascii	"-------------------"
.LC10:
	.ascii	"(a,f17.3,a)"
.LC11:
	.ascii	" Startup phase took : "
.LC12:
	.ascii	" sec"
.LC16:
	.ascii	"(A,ES9.2,A)"
	.align 8
.LC17:
	.ascii	" Start integrating, print status every "
.LC18:
	.ascii	" seconds"
.LC19:
	.ascii	"(A4,A10,A12,A12,A12)"
.LC20:
	.ascii	"  #"
.LC21:
	.ascii	"it"
.LC22:
	.ascii	"time"
.LC23:
	.ascii	"dt"
.LC24:
	.ascii	"wc-time(s)"
.LC25:
	.ascii	"(A4,I10,ES12.4,ES12.4,ES12.4)"
.LC26:
	.ascii	" #"
.LC27:
	.ascii	"savenow"
	.align 4
.LC28:
	.long	0
	.align 4
.LC29:
	.long	6
.LC30:
	.ascii	"(a,i7,a,i7,a,es12.4)"
.LC31:
	.ascii	" save a snapshot No."
.LC32:
	.ascii	" at it="
.LC33:
	.ascii	" global_time="
	.align 4
.LC34:
	.long	2
	.align 4
.LC36:
	.long	7
	.align 8
.LC37:
	.ascii	"Error: small value encountered, run crash."
.LC38:
	.ascii	"(a,f12.3,a)"
.LC39:
	.ascii	" Total timeloop took        : "
.LC40:
	.ascii	" Time spent on AMR          : "
.LC41:
	.ascii	"(a,f12.2,a)"
.LC42:
	.ascii	"                  Percentage: "
.LC44:
	.ascii	" %"
.LC45:
	.ascii	" Time spent on IO in loop   : "
.LC46:
	.ascii	" Time spent on ghost cells  : "
.LC47:
	.ascii	" Time spent on computing    : "
.LC48:
	.ascii	"(a,es12.3 )"
.LC49:
	.ascii	" Cells updated / proc / sec : "
.LC50:
	.ascii	" Total time spent on IO     : "
.LC51:
	.ascii	" Total timeintegration took : "
.LC52:
	.ascii	"(A4,I10,ES12.3,ES12.3,ES12.3)"
.LC53:
	.ascii	" Finished AMRVAC in : "
	.text
	.p2align 4,,15
	.type	MAIN__, @function
MAIN__:
.LFB0:
	.file 1 "amrvac.f"
	.loc 1 4 0 view -0
	.cfi_startproc
	pushq	%r15
	.cfi_def_cfa_offset 16
	.cfi_offset 15, -16
	.loc 1 23 0 view .LVU1
	xorl	%eax, %eax
	.loc 1 4 0 view .LVU2
	pushq	%r14
	.cfi_def_cfa_offset 24
	.cfi_offset 14, -24
	pushq	%r13
	.cfi_def_cfa_offset 32
	.cfi_offset 13, -32
	pushq	%r12
	.cfi_def_cfa_offset 40
	.cfi_offset 12, -40
	pushq	%rbp
	.cfi_def_cfa_offset 48
	.cfi_offset 6, -48
	pushq	%rbx
	.cfi_def_cfa_offset 56
	.cfi_offset 3, -56
	subq	$744, %rsp
	.cfi_def_cfa_offset 800
	.loc 1 23 0 view .LVU3
	call	comm_start_
.LVL0:
	.loc 1 25 0 view .LVU4
	call	mpi_wtime_
.LVL1:
	.loc 1 26 0 view .LVU5
	movl	$0, __mod_global_parameters_MOD_time_advance(%rip)
	.loc 1 25 0 view .LVU6
	movsd	%xmm0, 104(%rsp)
	.loc 1 27 0 view .LVU7
	movq	$0x000000000, __mod_global_parameters_MOD_time_bc(%rip)
	.loc 1 30 0 view .LVU8
	call	__mod_input_output_MOD_read_arguments
.LVL2:
	.loc 1 33 0 view .LVU9
	call	__mod_convert_MOD_init_convert
.LVL3:
	.loc 1 35 0 view .LVU10
	call	__mod_usr_MOD_usr_init
.LVL4:
	.loc 1 37 0 view .LVU11
	call	__mod_initialize_MOD_initialize_amrvac
.LVL5:
	.loc 1 39 0 view .LVU12
	movl	$.LC2, %ecx
	movl	$9, %edx
	movl	$__mod_global_parameters_MOD_restart_from_file, %esi
	movl	$131, %edi
	call	_gfortran_compare_string
.LVL6:
	testl	%eax, %eax
	je	.L2
	.loc 1 44 0 view .LVU13
	call	__mod_input_output_MOD_read_snapshot
.LVL7:
	.loc 1 47 0 view .LVU14
	movl	__mod_global_parameters_MOD_it(%rip), %eax
	orl	__mod_global_parameters_MOD_itsave+400(%rip), %eax
	jne	.L3
	.loc 1 47 0 is_stmt 0 discriminator 2 view .LVU15
	subl	$1, __mod_global_parameters_MOD_snapshotnext(%rip)
.L3:
	.loc 1 49 0 is_stmt 1 view .LVU16
	cmpl	$0, __mod_global_parameters_MOD_reset_time(%rip)
	je	.L4
	.loc 1 51 0 view .LVU17
	movl	__mod_global_parameters_MOD_it_init(%rip), %eax
	.loc 1 52 0 view .LVU18
	movsd	__mod_global_parameters_MOD_time_init(%rip), %xmm0
	.loc 1 54 0 view .LVU19
	movl	$0, __mod_global_parameters_MOD_snapshotnext(%rip)
	.loc 1 51 0 view .LVU20
	movl	%eax, __mod_global_parameters_MOD_it(%rip)
	.loc 1 52 0 view .LVU21
	movsd	%xmm0, __mod_global_parameters_MOD_global_time(%rip)
.L4:
	.loc 1 57 0 view .LVU22
	cmpl	$0, __mod_global_parameters_MOD_reset_it(%rip)
	je	.L5
	.loc 1 59 0 view .LVU23
	movl	__mod_global_parameters_MOD_it_init(%rip), %eax
	movl	%eax, __mod_global_parameters_MOD_it(%rip)
.L5:
	.loc 1 63 0 view .LVU24
	cmpl	$0, __mod_global_parameters_MOD_firstprocess(%rip)
	jne	.L149
.L6:
	.loc 1 66 0 view .LVU25
	xorl	%eax, %eax
	call	selectgrids_
.LVL8:
.LBB133:
	.loc 1 69 0 view .LVU26
	movq	__mod_physicaldata_MOD_ps(%rip), %rdx
	xorl	%r9d, %r9d
	movl	__mod_variables_MOD_nwaux(%rip), %eax
	movl	$.LC3, %ecx
	addl	__mod_variables_MOD_nwflux(%rip), %eax
	movl	$.LC4, %esi
	movl	$__mod_global_parameters_MOD_global_time, %edi
	leaq	192(%rsp), %r8
	movl	%eax, 192(%rsp)
	call	__mod_ghostcells_update_MOD_getbc
.LVL9:
.LBE133:
	.loc 1 72 0 view .LVU27
	cmpl	$0, __mod_global_parameters_MOD_reset_grid(%rip)
	jne	.L150
	.loc 1 76 0 view .LVU28
	movl	__mod_global_parameters_MOD_levmin(%rip), %eax
	cmpl	%eax, __mod_global_parameters_MOD_levmax(%rip)
	jg	.L151
.L8:
	.loc 1 79 0 view .LVU29
	cmpl	$0, __mod_global_parameters_MOD_use_particles(%rip)
	jne	.L152
	.loc 1 90 0 view .LVU30
	cmpl	$0, __mod_global_parameters_MOD_use_multigrid(%rip)
	jne	.L108
.L12:
	.loc 1 92 0 view .LVU31
	cmpl	$0, __mod_global_parameters_MOD_convert(%rip)
	jne	.L153
.L14:
	.loc 1 139 0 view .LVU32
	xorl	%eax, %eax
	call	initialize_after_settree_
.LVL10:
	.loc 1 141 0 view .LVU33
	movl	__mod_global_parameters_MOD_mype(%rip), %edi
	testl	%edi, %edi
	je	.L154
.L23:
	.loc 1 148 0 view .LVU34
	movq	__mod_usr_methods_MOD_usr_before_main_loop(%rip), %rax
	testq	%rax, %rax
	je	.L24
	.loc 1 148 0 is_stmt 0 discriminator 1 view .LVU35
	call	*%rax
.LVL11:
.L24:
.LBB134:
.LBB135:
	.loc 1 177 0 is_stmt 1 view .LVU36
	call	mpi_wtime_
.LVL12:
.LBB136:
	.loc 1 181 0 view .LVU37
	movl	__mod_global_parameters_MOD_snapshotini(%rip), %eax
.LBE136:
.LBB139:
	.loc 1 190 0 view .LVU38
	movl	$4, %ecx
	.loc 1 184 0 view .LVU39
	movl	__mod_global_parameters_MOD_resume_previous_run(%rip), %r8d
.LBE139:
	.loc 1 177 0 view .LVU40
	movsd	%xmm0, __mod_timing_MOD_time_in(%rip)
.LVL13:
.LBB140:
	.loc 1 189 0 view .LVU41
	movsd	__mod_global_parameters_MOD_global_time(%rip), %xmm3
	.loc 1 190 0 view .LVU42
	movl	__mod_global_parameters_MOD_it(%rip), %esi
.LBE140:
.LBB141:
.LBB137:
	.loc 1 181 0 view .LVU43
	movl	%eax, __mod_global_parameters_MOD_n_saves(%rip)
.LBE137:
.LBE141:
.LBB142:
	.loc 1 186 0 view .LVU44
	movsd	.LC14(%rip), %xmm7
.LBE142:
.LBB143:
.LBB138:
	.loc 1 181 0 view .LVU45
	movl	%eax, __mod_global_parameters_MOD_n_saves+4(%rip)
.LBE138:
.LBE143:
.LBB144:
	.loc 1 186 0 view .LVU46
	movq	.LC15(%rip), %xmm6
	jmp	.L28
	.p2align 4,,10
	.p2align 3
.L156:
	movsd	.LC13(%rip), %xmm0
	movapd	%xmm6, %xmm2
	movsd	__mod_global_parameters_MOD_dtsave(,%rcx,8), %xmm1
	addsd	%xmm3, %xmm0
	divsd	%xmm1, %xmm0
	movapd	%xmm0, %xmm5
	movapd	%xmm0, %xmm4
	andpd	%xmm6, %xmm5
	ucomisd	%xmm5, %xmm7
	jbe	.L26
	cvttsd2siq	%xmm0, %rax
	pxor	%xmm0, %xmm0
	andnpd	%xmm4, %xmm2
	cvtsi2sdq	%rax, %xmm0
	orpd	%xmm2, %xmm0
.L26:
	.loc 1 187 0 view .LVU47
	movl	__mod_global_parameters_MOD_ditsave(,%rcx,4), %edi
	.loc 1 186 0 view .LVU48
	mulsd	%xmm1, %xmm0
	.loc 1 187 0 view .LVU49
	movl	%esi, %eax
	cltd
	idivl	%edi
	.loc 1 186 0 view .LVU50
	movsd	%xmm0, __mod_global_parameters_MOD_tsavelast(,%rcx,8)
	.loc 1 187 0 view .LVU51
	imull	%edi, %eax
	movl	%eax, __mod_global_parameters_MOD_itsavelast(,%rcx,4)
	subq	$1, %rcx
	.loc 1 183 0 view .LVU52
	cmpq	$-1, %rcx
	je	.L155
.L28:
	.loc 1 184 0 view .LVU53
	testl	%r8d, %r8d
	jne	.L156
	.loc 1 189 0 view .LVU54
	movsd	%xmm3, __mod_global_parameters_MOD_tsavelast(,%rcx,8)
	.loc 1 190 0 view .LVU55
	movl	%esi, __mod_global_parameters_MOD_itsavelast(,%rcx,4)
	subq	$1, %rcx
	.loc 1 183 0 view .LVU56
	cmpq	$-1, %rcx
	jne	.L28
.L155:
.LBE144:
	.loc 1 195 0 view .LVU57
	movl	%esi, __mod_timing_MOD_ittimelast(%rip)
	movl	$0, 176(%rsp)
	.loc 1 196 0 view .LVU58
	call	mpi_wtime_
.LVL14:
	.loc 1 199 0 view .LVU59
	movl	__mod_global_parameters_MOD_mype(%rip), %esi
	.loc 1 196 0 view .LVU60
	movsd	%xmm0, __mod_timing_MOD_timelast(%rip)
	.loc 1 199 0 view .LVU61
	testl	%esi, %esi
	je	.L157
.L29:
	.loc 1 205 0 view .LVU62
	call	mpi_wtime_
.LVL15:
	.loc 1 208 0 view .LVU63
	movl	__mod_global_parameters_MOD_nghostcells(%rip), %eax
	movl	__mod_global_parameters_MOD_ixghi1(%rip), %edx
	.loc 1 206 0 view .LVU64
	movq	$0x000000000, __mod_global_parameters_MOD_time_bc(%rip)
.LVL16:
	.loc 1 208 0 view .LVU65
	movl	__mod_global_parameters_MOD_ixghi2(%rip), %ecx
	.loc 1 178 0 view .LVU66
	movsd	.LC1(%rip), %xmm6
	.loc 1 212 0 view .LVU67
	movl	$1, __mod_global_parameters_MOD_time_advance(%rip)
	.loc 1 208 0 view .LVU68
	addl	%eax, %eax
	.loc 1 207 0 view .LVU69
	movq	$0x000000000, 16(%rsp)
	.loc 1 208 0 view .LVU70
	subl	%eax, %edx
	subl	%eax, %ecx
	.loc 1 209 0 view .LVU71
	movq	$0, 112(%rsp)
	.loc 1 208 0 view .LVU72
	imull	%ecx, %edx
	.loc 1 210 0 view .LVU73
	movq	$0x000000000, (%rsp)
	.loc 1 179 0 view .LVU74
	movl	$1, 152(%rsp)
	.loc 1 205 0 view .LVU75
	movsd	%xmm0, __mod_timing_MOD_timeloop0(%rip)
	.loc 1 208 0 view .LVU76
	movl	%edx, 156(%rsp)
.LVL17:
	.loc 1 178 0 view .LVU77
	movsd	%xmm6, 96(%rsp)
.LVL18:
	.p2align 4,,10
	.p2align 3
.L98:
	.loc 1 216 0 view .LVU78
	call	mpi_wtime_
.LVL19:
	.loc 1 218 0 view .LVU79
	xorl	%eax, %eax
	.loc 1 216 0 view .LVU80
	movsd	%xmm0, 120(%rsp)
.LVL20:
	.loc 1 218 0 view .LVU81
	call	setdt_
.LVL21:
	.loc 1 222 0 view .LVU82
	cmpq	$0, __mod_usr_methods_MOD_usr_process_grid(%rip)
	je	.L158
.L30:
	.loc 1 224 0 view .LVU83
	movl	$__mod_global_parameters_MOD_global_time, %esi
	movl	$__mod_global_parameters_MOD_it, %edi
	call	__mod_advance_MOD_process
.LVL22:
.L31:
.LBB145:
.LBB146:
.LBB147:
	.loc 1 398 0 view .LVU84
	movl	__mod_global_parameters_MOD_it(%rip), %edi
	.loc 1 405 0 view .LVU85
	movl	$500, %ecx
	movl	$4, %eax
	movsd	__mod_global_parameters_MOD_global_time(%rip), %xmm0
	movsd	__mod_global_parameters_MOD_dt(%rip), %xmm3
	.loc 1 402 0 view .LVU86
	movl	$1, %r8d
	jmp	.L45
.LVL23:
	.p2align 4,,10
	.p2align 3
.L160:
	.loc 1 405 0 view .LVU87
	movapd	%xmm0, %xmm4
	subsd	%xmm3, %xmm4
	comisd	%xmm4, %xmm2
	jbe	.L34
.LVL24:
	.loc 1 407 0 view .LVU88
	addl	$1, %esi
	.loc 1 410 0 view .LVU89
	comisd	%xmm1, %xmm0
	.loc 1 407 0 view .LVU90
	movl	%esi, __mod_global_parameters_MOD_isavet(,%rax,4)
	.loc 1 410 0 view .LVU91
	jb	.L38
	.loc 1 411 0 view .LVU92
	movsd	__mod_global_parameters_MOD_tsavelast(,%rax,8), %xmm1
	addsd	__mod_global_parameters_MOD_dtsave(,%rax,8), %xmm1
	subsd	.LC13(%rip), %xmm1
	comisd	%xmm1, %xmm0
	jb	.L38
.LVL25:
.L43:
	.loc 1 413 0 view .LVU93
	addl	$1, __mod_global_parameters_MOD_n_saves(,%rax,4)
.LVL26:
.L38:
	.loc 1 419 0 view .LVU94
	movl	%edi, __mod_global_parameters_MOD_itsavelast(,%rax,4)
	movl	$1, %edx
	.loc 1 418 0 view .LVU95
	movsd	%xmm0, __mod_global_parameters_MOD_tsavelast(,%rax,8)
.L44:
.LVL27:
	.loc 1 418 0 is_stmt 0 view .LVU96
.LBE147:
.LBE146:
	.loc 1 229 0 is_stmt 1 view .LVU97
	movl	%edx, __mod_global_parameters_MOD_save_file(,%rax,4)
	subq	$1, %rax
	subq	$100, %rcx
	.loc 1 228 0 view .LVU98
	cmpq	$-1, %rax
	je	.L159
.L45:
.LVL28:
.LBB149:
.LBB148:
	.loc 1 398 0 view .LVU99
	movslq	__mod_global_parameters_MOD_isaveit(,%rax,4), %rdx
	leaq	-101(%rcx,%rdx), %r9
	movq	%rdx, %rsi
	.loc 1 397 0 view .LVU100
	xorl	%edx, %edx
	.loc 1 398 0 view .LVU101
	cmpl	%edi, __mod_global_parameters_MOD_itsave(,%r9,4)
	jne	.L32
.LVL29:
	.loc 1 400 0 view .LVU102
	addl	$1, %esi
	.loc 1 399 0 view .LVU103
	movl	$1, %edx
	.loc 1 400 0 view .LVU104
	movl	%esi, __mod_global_parameters_MOD_isaveit(,%rax,4)
.LVL30:
.L32:
	.loc 1 405 0 view .LVU105
	movslq	__mod_global_parameters_MOD_isavet(,%rax,4), %r9
	.loc 1 402 0 view .LVU106
	movl	__mod_global_parameters_MOD_ditsave(,%rax,4), %esi
	movsd	__mod_global_parameters_MOD_tsavestart(,%rax,8), %xmm1
	addl	__mod_global_parameters_MOD_itsavelast(,%rax,4), %esi
	cmpl	%esi, %edi
	.loc 1 405 0 view .LVU107
	movq	%r9, %rsi
	leaq	-101(%rcx,%r9), %r9
	movsd	__mod_global_parameters_MOD_tsave(,%r9,8), %xmm2
	.loc 1 402 0 view .LVU108
	cmove	%r8d, %edx
.LVL31:
	.loc 1 402 0 is_stmt 0 view .LVU109
	subsd	.LC13(%rip), %xmm1
	.loc 1 405 0 is_stmt 1 view .LVU110
	comisd	%xmm2, %xmm0
	jnb	.L160
.L34:
	.loc 1 410 0 view .LVU111
	comisd	%xmm1, %xmm0
	jb	.L41
	.loc 1 411 0 view .LVU112
	movsd	__mod_global_parameters_MOD_tsavelast(,%rax,8), %xmm1
	addsd	__mod_global_parameters_MOD_dtsave(,%rax,8), %xmm1
	subsd	.LC13(%rip), %xmm1
	comisd	%xmm1, %xmm0
	jnb	.L43
.L41:
	.loc 1 417 0 view .LVU113
	testl	%edx, %edx
	je	.L44
	jmp	.L38
.LVL32:
.L2:
	.loc 1 417 0 is_stmt 0 view .LVU114
.LBE148:
.LBE149:
.LBE145:
.LBE135:
.LBE134:
	.loc 1 119 0 is_stmt 1 view .LVU115
	xorl	%eax, %eax
	call	initlevelone_
.LVL33:
	.loc 1 122 0 view .LVU116
	xorl	%eax, %eax
	call	settree_
.LVL34:
	.loc 1 124 0 view .LVU117
	cmpl	$0, __mod_global_parameters_MOD_use_multigrid(%rip)
	jne	.L161
.L21:
	.loc 1 128 0 view .LVU118
	xorl	%eax, %eax
	call	improve_initial_condition_
.LVL35:
	.loc 1 132 0 view .LVU119
	xorl	%eax, %eax
	call	selectgrids_
.LVL36:
	.loc 1 134 0 view .LVU120
	cmpl	$0, __mod_global_parameters_MOD_use_particles(%rip)
	je	.L14
	.loc 1 134 0 is_stmt 0 discriminator 1 view .LVU121
	call	__mod_particles_MOD_particles_create
.LVL37:
	jmp	.L14
.LVL38:
	.p2align 4,,10
	.p2align 3
.L158:
.LBB225:
.LBB221:
	.loc 1 222 0 is_stmt 1 view .LVU122
	cmpq	$0, __mod_usr_methods_MOD_usr_process_global(%rip)
	jne	.L30
	jmp	.L31
	.p2align 4,,10
	.p2align 3
.L159:
	.loc 1 222 0 is_stmt 0 view .LVU123
	movl	$0, 176(%rsp)
	.loc 1 232 0 is_stmt 1 view .LVU124
	call	mpi_wtime_
.LVL39:
	.loc 1 234 0 view .LVU125
	movapd	%xmm0, %xmm1
	subsd	96(%rsp), %xmm1
	.loc 1 232 0 view .LVU126
	movsd	%xmm0, __mod_timing_MOD_timeio0(%rip)
	.loc 1 234 0 view .LVU127
	comisd	__mod_global_parameters_MOD_time_between_print(%rip), %xmm1
	jbe	.L46
.LVL40:
	.loc 1 236 0 view .LVU128
	movl	__mod_global_parameters_MOD_mype(%rip), %ecx
	.loc 1 235 0 view .LVU129
	movsd	%xmm0, 96(%rsp)
	.loc 1 236 0 view .LVU130
	testl	%ecx, %ecx
	je	.L162
.LVL41:
.L46:
	.loc 1 235 0 view .LVU131
	xorl	%eax, %eax
.L50:
.LBB150:
.LBB151:
	.loc 1 243 0 view .LVU132
	movl	__mod_global_parameters_MOD_save_file(,%rax,4), %edx
	testl	%edx, %edx
	jne	.L48
	addq	$1, %rax
	cmpq	$5, %rax
	jne	.L50
.L49:
	.loc 1 243 0 is_stmt 0 view .LVU133
.LBE151:
.LBE150:
	.loc 1 266 0 is_stmt 1 view .LVU134
	movl	__mod_global_parameters_MOD_mype(%rip), %r15d
	testl	%r15d, %r15d
	je	.L163
.L57:
	.loc 1 267 0 view .LVU135
	cmpl	$1, __mod_global_parameters_MOD_npe(%rip)
	jle	.L58
.LBB158:
	movl	$__mod_global_parameters_MOD_ierrmpi, %r9d
	movl	$__mod_global_parameters_MOD_icomm, %r8d
	movl	$.LC28, %ecx
	movl	$.LC29, %edx
	movl	$.LC3, %esi
	movl	$__mod_input_output_MOD_save_now, %edi
	call	mpi_bcast_
.LVL42:
.L58:
.LBE158:
	.loc 1 269 0 view .LVU136
	movl	__mod_input_output_MOD_save_now(%rip), %r14d
	testl	%r14d, %r14d
	je	.L59
	.loc 1 270 0 view .LVU137
	movl	__mod_global_parameters_MOD_mype(%rip), %r13d
	testl	%r13d, %r13d
	je	.L164
.L60:
.LBB159:
	.loc 1 272 0 view .LVU138
	movl	$.LC3, %edi
	call	__mod_input_output_MOD_saveamrfile
.LVL43:
.LBE159:
.LBB160:
	.loc 1 273 0 view .LVU139
	movl	$.LC34, %edi
	call	__mod_input_output_MOD_saveamrfile
.LVL44:
.LBE160:
.LBB161:
	.loc 1 274 0 view .LVU140
	movl	$7, %ecx
	movl	$__mod_global_parameters_MOD_ierrmpi, %edx
	movl	$.LC28, %esi
	movl	$.LC27, %edi
	call	mpi_file_delete_
.LVL45:
.L59:
.LBE161:
	.loc 1 276 0 view .LVU141
	call	mpi_wtime_
.LVL46:
	addsd	__mod_timing_MOD_timeio_tot(%rip), %xmm0
	subsd	__mod_timing_MOD_timeio0(%rip), %xmm0
	movsd	%xmm0, __mod_timing_MOD_timeio_tot(%rip)
	.loc 1 279 0 view .LVU142
	call	mpi_wtime_
.LVL47:
	movsd	.LC35(%rip), %xmm1
	mulsd	16(%rsp), %xmm1
	xorl	%eax, %eax
	subsd	104(%rsp), %xmm0
	addsd	(%rsp), %xmm0
	addsd	%xmm1, %xmm0
	movsd	__mod_global_parameters_MOD_wall_time_max(%rip), %xmm1
	comisd	%xmm1, %xmm0
	setnb	%al
	movl	%eax, __mod_global_parameters_MOD_pass_wall_time(%rip)
	.loc 1 282 0 view .LVU143
	movl	__mod_global_parameters_MOD_it_max(%rip), %eax
	cmpl	%eax, __mod_global_parameters_MOD_it(%rip)
	jge	.L61
	movsd	__mod_global_parameters_MOD_global_time(%rip), %xmm2
	comisd	__mod_global_parameters_MOD_time_max(%rip), %xmm2
	jnb	.L61
	comisd	%xmm1, %xmm0
	jnb	.L61
	movl	__mod_global_parameters_MOD_final_dt_exit(%rip), %r12d
	testl	%r12d, %r12d
	jne	.L61
	.loc 1 286 0 view .LVU144
	movl	$__mod_global_parameters_MOD_it, %edi
	call	__mod_advance_MOD_advance
.LVL48:
.LBB162:
	.loc 1 289 0 view .LVU145
	subq	$8, %rsp
	.cfi_def_cfa_offset 808
.LVL49:
	.loc 1 289 0 is_stmt 0 view .LVU146
	movl	$__mod_global_parameters_MOD_icomm, %r9d
	movl	$.LC36, %r8d
	pushq	$__mod_global_parameters_MOD_ierrmpi
	.cfi_def_cfa_offset 816
	movl	$.LC29, %ecx
	movl	$.LC3, %edx
	movl	$__mod_global_parameters_MOD_crash, %edi
	leaq	188(%rsp), %rsi
	call	mpi_allreduce_
.LVL50:
.LBE162:
	.loc 1 290 0 is_stmt 1 view .LVU147
	popq	%r11
	.cfi_def_cfa_offset 808
	popq	%rbx
	.cfi_def_cfa_offset 800
.LVL51:
	.loc 1 290 0 is_stmt 0 view .LVU148
	movl	172(%rsp), %ebp
	testl	%ebp, %ebp
	jne	.L165
.LVL52:
.L62:
	.loc 1 302 0 is_stmt 1 view .LVU149
	cmpq	$0, __mod_usr_methods_MOD_usr_process_adv_grid(%rip)
	je	.L166
.L92:
	.loc 1 304 0 view .LVU150
	movl	$__mod_global_parameters_MOD_global_time, %esi
	movl	$__mod_global_parameters_MOD_it, %edi
	call	__mod_advance_MOD_process_advanced
.LVL53:
.L93:
	.loc 1 308 0 view .LVU151
	call	mpi_wtime_
.LVL54:
	.loc 1 309 0 view .LVU152
	movl	__mod_global_parameters_MOD_ditregrid(%rip), %eax
	.loc 1 308 0 view .LVU153
	movsd	%xmm0, __mod_timing_MOD_timegr0(%rip)
	.loc 1 309 0 view .LVU154
	cmpl	$1, %eax
	jle	.L94
	.loc 1 310 0 view .LVU155
	movl	152(%rsp), %ebx
	cmpl	%ebx, %eax
	jle	.L95
	.loc 1 311 0 view .LVU156
	addl	$1, %ebx
	movl	%ebx, 152(%rsp)
.LVL55:
.L96:
	.loc 1 319 0 view .LVU157
	call	mpi_wtime_
.LVL56:
	subsd	__mod_timing_MOD_timegr0(%rip), %xmm0
	addsd	__mod_timing_MOD_timegr_tot(%rip), %xmm0
	.loc 1 322 0 view .LVU158
	movl	__mod_global_parameters_MOD_it(%rip), %eax
	.loc 1 319 0 view .LVU159
	movsd	%xmm0, __mod_timing_MOD_timegr_tot(%rip)
	.loc 1 323 0 view .LVU160
	movsd	__mod_global_parameters_MOD_global_time(%rip), %xmm0
	.loc 1 322 0 view .LVU161
	addl	$1, %eax
	.loc 1 323 0 view .LVU162
	addsd	__mod_global_parameters_MOD_dt(%rip), %xmm0
	.loc 1 322 0 view .LVU163
	movl	%eax, __mod_global_parameters_MOD_it(%rip)
	.loc 1 323 0 view .LVU164
	movsd	%xmm0, __mod_global_parameters_MOD_global_time(%rip)
	.loc 1 325 0 view .LVU165
	cmpl	$9000000, %eax
	jle	.L97
	.loc 1 326 0 view .LVU166
	movl	__mod_global_parameters_MOD_it_init(%rip), %eax
	addl	__mod_global_parameters_MOD_slowsteps(%rip), %eax
	.loc 1 327 0 view .LVU167
	pxor	%xmm0, %xmm0
	movl	$0, __mod_global_parameters_MOD_itsavelast+16(%rip)
	.loc 1 326 0 view .LVU168
	movl	%eax, __mod_global_parameters_MOD_it(%rip)
	.loc 1 327 0 view .LVU169
	movups	%xmm0, __mod_global_parameters_MOD_itsavelast(%rip)
.L97:
	.loc 1 331 0 view .LVU170
	movl	156(%rsp), %eax
	imull	__mod_forest_MOD_nleafs_active(%rip), %eax
	cltq
	addq	%rax, 112(%rsp)
.LVL57:
	.loc 1 334 0 view .LVU171
	call	mpi_wtime_
.LVL58:
	subsd	120(%rsp), %xmm0
	movsd	%xmm0, (%rsp)
.LVL59:
	.loc 1 334 0 is_stmt 0 view .LVU172
	jmp	.L98
.LVL60:
	.p2align 4,,10
	.p2align 3
.L162:
.LBB163:
	.loc 1 238 0 is_stmt 1 view .LVU173
	movabsq	$25769807872, %rax
	leaq	192(%rsp), %rdi
	movq	$.LC8, 200(%rsp)
	movq	%rax, 192(%rsp)
	movl	$238, 208(%rsp)
	movq	$.LC25, 272(%rsp)
	movq	$29, 280(%rsp)
	call	_gfortran_st_write
.LVL61:
	.loc 1 237 0 view .LVU174
	movl	$2, %edx
	movl	$.LC26, %esi
	leaq	192(%rsp), %rdi
	call	_gfortran_transfer_character_write
.LVL62:
	movl	$4, %edx
	movl	$__mod_global_parameters_MOD_it, %esi
	leaq	192(%rsp), %rdi
	call	_gfortran_transfer_integer_write
.LVL63:
	movl	$8, %edx
	movl	$__mod_global_parameters_MOD_global_time, %esi
	leaq	192(%rsp), %rdi
	call	_gfortran_transfer_real_write
.LVL64:
	movl	$8, %edx
	movl	$__mod_global_parameters_MOD_dt, %esi
	leaq	192(%rsp), %rdi
	call	_gfortran_transfer_real_write
.LVL65:
.LBB164:
	.loc 1 238 0 view .LVU175
	movsd	__mod_timing_MOD_timeio0(%rip), %xmm0
	subsd	__mod_timing_MOD_time_in(%rip), %xmm0
	leaq	192(%rsp), %rdi
	movl	$8, %edx
	leaq	184(%rsp), %rsi
	movsd	%xmm0, 184(%rsp)
	call	_gfortran_transfer_real_write
.LVL66:
.LBE164:
	leaq	192(%rsp), %rdi
	call	_gfortran_st_write_done
.LVL67:
	jmp	.L46
.LVL68:
	.p2align 4,,10
	.p2align 3
.L95:
	.loc 1 238 0 is_stmt 0 view .LVU176
.LBE163:
	.loc 1 313 0 is_stmt 1 view .LVU177
	cmpl	$1, __mod_global_parameters_MOD_refine_max_level(%rip)
	.loc 1 314 0 view .LVU178
	movl	$1, 152(%rsp)
.LVL69:
	.loc 1 313 0 view .LVU179
	jle	.L96
.L146:
.LBB165:
.LBB166:
	.loc 1 431 0 view .LVU180
	movsd	__mod_global_parameters_MOD_global_time(%rip), %xmm0
	comisd	__mod_global_parameters_MOD_tfixgrid(%rip), %xmm0
	jnb	.L96
.LBB167:
.LBB168:
	movl	__mod_global_parameters_MOD_itfixgrid(%rip), %eax
	cmpl	%eax, __mod_global_parameters_MOD_it(%rip)
	jge	.L96
.LVL70:
	.loc 1 431 0 is_stmt 0 view .LVU181
.LBE168:
.LBE167:
.LBE166:
.LBE165:
	.loc 1 317 0 is_stmt 1 view .LVU182
	xorl	%eax, %eax
	call	resettree_
.LVL71:
	jmp	.L96
.LVL72:
	.p2align 4,,10
	.p2align 3
.L48:
.LBB169:
	.loc 1 244 0 view .LVU183
	cmpq	$0, __mod_usr_methods_MOD_usr_modify_output(%rip)
	jne	.L167
.L54:
.LVL73:
	.loc 1 254 0 view .LVU184
	movl	$5, 176(%rsp)
.LBB152:
	.loc 1 254 0 is_stmt 0 view .LVU185
	movl	$5, %eax
.LBE152:
	.loc 1 253 0 is_stmt 1 view .LVU186
	movq	$0x000000000, 16(%rsp)
	jmp	.L52
.LVL74:
	.p2align 4,,10
	.p2align 3
.L56:
.LBB153:
	.loc 1 254 0 view .LVU187
	movl	176(%rsp), %eax
	subl	$1, %eax
	movl	%eax, 176(%rsp)
	.loc 1 254 0 is_stmt 0 view .LVU188
	testl	%eax, %eax
	jle	.L49
.LVL75:
.L52:
	.loc 1 255 0 is_stmt 1 view .LVU189
	cltq
	movl	__mod_global_parameters_MOD_save_file-4(,%rax,4), %eax
	testl	%eax, %eax
	je	.L56
	.loc 1 256 0 view .LVU190
	call	mpi_wtime_
.LVL76:
	.loc 1 257 0 view .LVU191
	leaq	176(%rsp), %rdi
	.loc 1 256 0 view .LVU192
	movsd	%xmm0, 8(%rsp)
.LVL77:
	.loc 1 257 0 view .LVU193
	call	__mod_input_output_MOD_saveamrfile
.LVL78:
	.loc 1 258 0 view .LVU194
	call	mpi_wtime_
.LVL79:
	addsd	16(%rsp), %xmm0
	movapd	%xmm0, %xmm6
	subsd	8(%rsp), %xmm6
	movsd	%xmm6, 16(%rsp)
.LVL80:
	.loc 1 258 0 is_stmt 0 view .LVU195
	jmp	.L56
.LVL81:
	.p2align 4,,10
	.p2align 3
.L167:
	.loc 1 258 0 view .LVU196
.LBE153:
.LBB154:
	.loc 1 246 0 is_stmt 1 view .LVU197
	movl	__mod_connectivity_MOD_igridstail(%rip), %eax
	movl	$1, 180(%rsp)
.LBB155:
	testl	%eax, %eax
	jle	.L54
	leal	-1(%rax), %ebp
	movl	$1, %r12d
	addq	$2, %rbp
	.p2align 4,,10
	.p2align 3
.L55:
.LVL82:
	.loc 1 246 0 is_stmt 0 view .LVU198
	movq	__mod_connectivity_MOD_igrids+8(%rip), %rdx
	.loc 1 247 0 is_stmt 1 view .LVU199
	movq	__mod_connectivity_MOD_igrids(%rip), %rax
	.loc 1 246 0 view .LVU200
	addq	%r12, %rdx
	.loc 1 247 0 view .LVU201
	movslq	(%rax,%rdx,4), %rbx
	movq	__mod_global_parameters_MOD_rnode+64(%rip), %rax
	movq	__mod_global_parameters_MOD_rnode(%rip), %rdx
	imulq	%rbx, %rax
	addq	__mod_global_parameters_MOD_rnode+8(%rip), %rax
	leaq	(%rdx,%rax,8), %rax
	.loc 1 248 0 view .LVU202
	movq	__mod_physicaldata_MOD_ps(%rip), %rdx
	.loc 1 247 0 view .LVU203
	movsd	40(%rax), %xmm0
	movsd	%xmm0, __mod_global_parameters_MOD_dxlevel(%rip)
	movsd	48(%rax), %xmm0
	.loc 1 248 0 view .LVU204
	movq	__mod_physicaldata_MOD_ps+8(%rip), %rax
	addq	%rbx, %rax
	.loc 1 247 0 view .LVU205
	movsd	%xmm0, __mod_global_parameters_MOD_dxlevel+8(%rip)
	imulq	$1872, %rax, %rax
	.loc 1 248 0 view .LVU206
	leaq	(%rdx,%rax), %rcx
.LBB156:
	.loc 1 250 0 view .LVU207
	leaq	1048(%rdx,%rax), %rdi
.LBE156:
	.loc 1 248 0 view .LVU208
	movq	%rcx, __mod_global_parameters_MOD_block(%rip)
.LBB157:
	.loc 1 250 0 view .LVU209
	call	_gfortran_internal_pack
.LVL83:
	.loc 1 250 0 is_stmt 0 view .LVU210
	movq	__mod_physicaldata_MOD_ps+8(%rip), %rdx
	subq	$8, %rsp
	.cfi_def_cfa_offset 808
.LVL84:
	.loc 1 250 0 view .LVU211
	movl	$.LC3, %esi
	pushq	%rax
	.cfi_def_cfa_offset 816
	movq	%rax, %r13
	movl	$__mod_global_parameters_MOD_ixmlo2, %r9d
	movl	$__mod_global_parameters_MOD_ixmlo1, %r8d
	addq	%rbx, %rdx
	movl	$__mod_global_parameters_MOD_ixghi2, %ecx
	movq	%rsi, %rdi
	imulq	$1872, %rdx, %rdx
	addq	__mod_physicaldata_MOD_ps(%rip), %rdx
	pushq	104(%rdx)
	.cfi_def_cfa_offset 824
	movl	$__mod_global_parameters_MOD_ixghi1, %edx
	pushq	$__mod_global_parameters_MOD_global_time
	.cfi_def_cfa_offset 832
	pushq	$__mod_global_parameters_MOD_ixmhi2
	.cfi_def_cfa_offset 840
	pushq	$__mod_global_parameters_MOD_ixmhi1
	.cfi_def_cfa_offset 848
	call	*__mod_usr_methods_MOD_usr_modify_output(%rip)
.LVL85:
	addq	__mod_physicaldata_MOD_ps+8(%rip), %rbx
	imulq	$1872, %rbx, %rbx
	addq	__mod_physicaldata_MOD_ps(%rip), %rbx
	addq	$48, %rsp
	.cfi_def_cfa_offset 800
.LVL86:
	.loc 1 250 0 view .LVU212
	cmpq	1048(%rbx), %r13
	je	.L53
	movq	%r13, %rdi
	call	free
.LVL87:
.L53:
.LBE157:
	.loc 1 246 0 is_stmt 1 view .LVU213
	leal	1(%r12), %eax
	addq	$1, %r12
	movl	%eax, 180(%rsp)
	cmpq	%r12, %rbp
	jne	.L55
	jmp	.L54
	.p2align 4,,10
	.p2align 3
.L163:
	.loc 1 246 0 is_stmt 0 view .LVU214
.LBE155:
.LBE154:
.LBE169:
.LBB170:
	.loc 1 266 0 is_stmt 1 view .LVU215
	leaq	192(%rsp), %rdi
	movq	$.LC8, 200(%rsp)
	movl	$266, 208(%rsp)
	movq	$.LC27, 296(%rsp)
	movq	$7, 304(%rsp)
	movq	$__mod_input_output_MOD_save_now, 240(%rsp)
	movq	$16512, 192(%rsp)
	call	_gfortran_st_inquire
.LVL88:
	jmp	.L57
	.p2align 4,,10
	.p2align 3
.L164:
.LBE170:
.LBB171:
	.loc 1 271 0 view .LVU216
	movabsq	$25769807872, %rax
	leaq	192(%rsp), %rdi
	movq	$.LC8, 200(%rsp)
	movq	%rax, 192(%rsp)
	movl	$271, 208(%rsp)
	movq	$.LC30, 272(%rsp)
	movq	$20, 280(%rsp)
	call	_gfortran_st_write
.LVL89:
	.loc 1 270 0 view .LVU217
	movl	$20, %edx
	movl	$.LC31, %esi
	leaq	192(%rsp), %rdi
	call	_gfortran_transfer_character_write
.LVL90:
	.loc 1 271 0 view .LVU218
	movl	$4, %edx
	movl	$__mod_global_parameters_MOD_snapshotnext, %esi
	leaq	192(%rsp), %rdi
	call	_gfortran_transfer_integer_write
.LVL91:
	movl	$7, %edx
	movl	$.LC32, %esi
	leaq	192(%rsp), %rdi
	call	_gfortran_transfer_character_write
.LVL92:
	movl	$4, %edx
	movl	$__mod_global_parameters_MOD_it, %esi
	leaq	192(%rsp), %rdi
	call	_gfortran_transfer_integer_write
.LVL93:
	movl	$13, %edx
	movl	$.LC33, %esi
	leaq	192(%rsp), %rdi
	call	_gfortran_transfer_character_write
.LVL94:
	movl	$8, %edx
	movl	$__mod_global_parameters_MOD_global_time, %esi
	leaq	192(%rsp), %rdi
	call	_gfortran_transfer_real_write
.LVL95:
	leaq	192(%rsp), %rdi
	call	_gfortran_st_write_done
.LVL96:
	jmp	.L60
.LVL97:
	.p2align 4,,10
	.p2align 3
.L94:
	.loc 1 271 0 is_stmt 0 view .LVU219
.LBE171:
	.loc 1 317 0 is_stmt 1 view .LVU220
	cmpl	$1, __mod_global_parameters_MOD_refine_max_level(%rip)
	jg	.L146
	jmp	.L96
	.p2align 4,,10
	.p2align 3
.L166:
	.loc 1 302 0 view .LVU221
	cmpq	$0, __mod_usr_methods_MOD_usr_process_adv_global(%rip)
	jne	.L92
	jmp	.L93
.LVL98:
	.p2align 4,,10
	.p2align 3
.L165:
.LBB172:
	.loc 1 291 0 view .LVU222
	movl	__mod_connectivity_MOD_igridstail(%rip), %eax
	movl	$1, 180(%rsp)
.LBB173:
	testl	%eax, %eax
	jle	.L82
	subl	$1, %eax
	movl	$1, %r14d
	addq	$2, %rax
.LBB174:
.LBB175:
.LBB176:
	.loc 1 292 0 view .LVU223
	movq	%r14, 48(%rsp)
	movq	%rax, 144(%rsp)
.LVL99:
	.p2align 4,,10
	.p2align 3
.L83:
	.loc 1 292 0 is_stmt 0 view .LVU224
.LBE176:
.LBE175:
	movq	__mod_connectivity_MOD_igrids(%rip), %rax
.LBE174:
	.loc 1 291 0 is_stmt 1 view .LVU225
	movq	48(%rsp), %rdx
	addq	__mod_connectivity_MOD_igrids+8(%rip), %rdx
.LBB189:
	.loc 1 292 0 view .LVU226
	movq	__mod_physicaldata_MOD_pso+8(%rip), %rcx
	movslq	(%rax,%rdx,4), %rbx
	movq	__mod_physicaldata_MOD_pso(%rip), %r9
	movq	__mod_physicaldata_MOD_ps(%rip), %rdi
	addq	%rbx, %rcx
	movq	%rbx, 56(%rsp)
	addq	__mod_physicaldata_MOD_ps+8(%rip), %rbx
	imulq	$1872, %rcx, %rax
	imulq	$1872, %rbx, %r8
	addq	%r9, %rax
	movq	104(%rax), %rdx
	movq	152(%rax), %r10
	addq	%rdi, %r8
	movq	160(%rax), %rsi
	movq	176(%rax), %r11
	movq	184(%rax), %r14
	movq	200(%rax), %rbp
	movq	%rdx, 128(%rsp)
	movq	112(%rax), %rdx
	movq	208(%rax), %rax
	movq	%rsi, 32(%rsp)
	subq	%r10, %rsi
	movq	104(%r8), %r15
	movq	%r14, 64(%rsp)
	subq	%r11, %r14
	movq	%rax, 72(%rsp)
	subq	%rbp, %rax
	movq	%r14, %r12
	movq	%rdx, 136(%rsp)
	movq	%rbx, %rdx
	movq	%r10, (%rsp)
	movq	%rsi, %r10
	movq	%r11, 8(%rsp)
	movq	%rbp, 24(%rsp)
	movq	%rax, 40(%rsp)
.LBB184:
.LBB177:
	testq	%r15, %r15
	je	.L111
.LBE177:
.LBE184:
	movq	152(%r8), %rax
	movq	160(%r8), %rsi
	movq	176(%r8), %rbx
	movq	184(%r8), %rbp
.LBB185:
.LBB178:
	leaq	(%rax,%r10), %r14
.LBE178:
.LBE185:
	movq	200(%r8), %r13
	movq	208(%r8), %r11
.LBB186:
.LBB179:
	cmpq	%r14, %rsi
	je	.L168
.L67:
	subq	%rax, %rsi
	movq	$-1, %rax
	cmovs	%rax, %rsi
	addq	$1, %rsi
	subq	%rbx, %rbp
	cmovs	%rax, %rbp
	addq	$1, %rbp
	imulq	%rbp, %rsi
	subq	%r13, %r11
	cmovs	%rax, %r11
	leaq	1(%r11), %rbp
	imulq	%rbp, %rsi
	movq	%rsi, 80(%rsp)
.L66:
	leaq	1(%r12), %rbp
	leaq	1(%r10), %rsi
	movq	40(%rsp), %rax
	movq	32(%rsp), %r14
	movq	%rbp, %r8
	imulq	%rsi, %r8
	leaq	1(%rax), %rbx
	movq	%rbx, %rax
	imulq	%r8, %rax
	movq	%rax, 88(%rsp)
	movq	(%rsp), %rax
	cmpq	%r14, %rax
	movq	%rax, %r11
	movl	$1, %eax
	cmovg	%rax, %r11
	imulq	$1872, %rdx, %rax
	addq	%rdi, %rax
	movq	%r11, 152(%rax)
	imulq	$1872, %rcx, %r11
	addq	%r9, %r11
	movq	152(%r11), %r13
	movq	$1, 144(%rax)
	addq	%r13, %r10
	cmpq	%r13, %r14
	cmovl	%rsi, %r10
	xorl	%r14d, %r14d
	movq	%r10, 160(%rax)
	movq	168(%r11), %rax
	movq	184(%r11), %r13
	movq	176(%r11), %r11
	movq	%rax, %r10
	shrq	$63, %rax
	notq	%r10
	shrq	$63, %r10
	cmpq	%r11, %r13
	setge	%r14b
	testl	%r10d, %r14d
	jne	.L71
	testl	%eax, %eax
	movl	$1, %r14d
	cmove	%r14, %r11
.L71:
	imulq	$1872, %rdx, %r14
	movq	%r11, 176(%rdi,%r14)
	imulq	$1872, %rcx, %r11
	movq	176(%r9,%r11), %r11
	cmpq	%r11, %r13
	setge	%r13b
	movzbl	%r13b, %r13d
	testl	%r10d, %r13d
	jne	.L123
	testl	%eax, %eax
	jne	.L123
.L73:
	imulq	$1872, %rdx, %rax
	xorl	%r12d, %r12d
	imulq	$1872, %rcx, %r11
	addq	%rdi, %rax
	addq	%r9, %r11
	movq	%rbp, 184(%rax)
	movq	%rsi, 168(%rax)
	movq	192(%r11), %rax
	movq	208(%r11), %rbp
	movq	200(%r11), %r11
	movq	%rax, %r10
	shrq	$63, %rax
	notq	%r10
	shrq	$63, %r10
	cmpq	%r11, %rbp
	setge	%r12b
	testl	%r10d, %r12d
	jne	.L75
	testl	%eax, %eax
	movl	$1, %r12d
	cmove	%r12, %r11
.L75:
	imulq	$1872, %rdx, %r12
	imulq	$1872, %rcx, %rcx
	movq	%r11, 200(%rdi,%r12)
	movq	200(%r9,%rcx), %rcx
	xorl	%r9d, %r9d
	cmpq	%rcx, %rbp
	setge	%r9b
	testl	%r10d, %r9d
	jne	.L124
	testl	%eax, %eax
	jne	.L124
.L77:
	imulq	$1872, %rdx, %rdx
	leaq	(%rdi,%rdx), %rbp
	imulq	176(%rbp), %rsi
	movq	152(%rbp), %rax
	movq	%r8, 192(%rbp)
	imulq	200(%rbp), %r8
	movq	%rbx, 208(%rbp)
	negq	%rax
	movq	176(%rbp), %rbx
	movq	200(%rbp), %r13
	subq	%rsi, %rax
	movq	88(%rsp), %rsi
	subq	8(%rsp), %rbx
	subq	%r8, %rax
	subq	24(%rsp), %r13
	movq	%rax, %r14
	movq	%rax, 112(%rbp)
	movq	152(%rbp), %rax
	subq	(%rsp), %rax
	salq	$3, %rsi
	movq	%rax, 40(%rsp)
	movl	$1, %eax
	cmove	%rax, %rsi
	testq	%r15, %r15
	je	.L169
	movq	80(%rsp), %rcx
	cmpq	%rcx, 88(%rsp)
	je	.L68
	movq	%r15, %rdi
	call	realloc
.LVL100:
	.loc 1 292 0 is_stmt 0 view .LVU227
	movq	%rax, 104(%rbp)
	movq	56(%rsp), %rax
	addq	__mod_physicaldata_MOD_ps+8(%rip), %rax
	imulq	$1872, %rax, %rax
	addq	__mod_physicaldata_MOD_ps(%rip), %rax
	movq	104(%rax), %r15
.L68:
.LBE179:
	movq	72(%rsp), %rcx
	cmpq	%rcx, 24(%rsp)
	jg	.L85
	movq	72(%rsp), %rdi
	movq	24(%rsp), %r9
.LBB180:
	movq	56(%rsp), %rax
	movq	__mod_physicaldata_MOD_pso+8(%rip), %rcx
	addq	$1, %rdi
	addq	%r9, %r13
	movq	%r9, %rsi
	subq	%r9, %rdi
	addq	%rax, %rcx
	addq	__mod_physicaldata_MOD_ps+8(%rip), %rax
	xorl	%r9d, %r9d
	movq	%rdi, 56(%rsp)
	movq	8(%rsp), %rdi
	imulq	$1872, %rax, %rdx
	addq	__mod_physicaldata_MOD_ps(%rip), %rdx
	imulq	$1872, %rcx, %rcx
	addq	__mod_physicaldata_MOD_pso(%rip), %rcx
	addq	%rdi, %rbx
	movq	192(%rdx), %rbp
	movq	192(%rcx), %r12
	movq	%rbx, 80(%rsp)
	movq	64(%rsp), %rbx
	imulq	%rbp, %r13
	imulq	%r12, %rsi
	leaq	1(%rbx), %r8
	movq	32(%rsp), %rbx
	addq	136(%rsp), %rsi
	subq	%rdi, %r8
	leaq	0(%r13,%r14), %rax
	leaq	1(%rbx), %r13
	.p2align 4,,10
	.p2align 3
.L86:
	movq	64(%rsp), %rdi
	cmpq	%rdi, 8(%rsp)
	jg	.L88
.LBB181:
	movq	168(%rcx), %r10
	movq	168(%rdx), %rdi
	leaq	0(,%r10,8), %rbx
	leaq	0(,%rdi,8), %r14
	imulq	8(%rsp), %r10
	movq	%rbx, 72(%rsp)
	imulq	80(%rsp), %rdi
	movq	128(%rsp), %rbx
	addq	%rsi, %r10
	addq	%rax, %rdi
	addq	40(%rsp), %rdi
	leaq	(%rbx,%r10,8), %rbx
	xorl	%r10d, %r10d
	leaq	(%r15,%rdi,8), %r11
	.p2align 4,,10
	.p2align 3
.L89:
	movq	(%rsp), %rdi
	movq	%rdi, 24(%rsp)
	movq	32(%rsp), %rdi
	cmpq	%rdi, (%rsp)
	jg	.L90
	movq	24(%rsp), %rdi
	.p2align 4,,10
	.p2align 3
.L91:
	movsd	(%rbx,%rdi,8), %xmm0
	movsd	%xmm0, (%r11,%rdi,8)
	addq	$1, %rdi
	cmpq	%r13, %rdi
	jne	.L91
.L90:
	addq	$1, %r10
	addq	72(%rsp), %rbx
	addq	%r14, %r11
.LBE181:
	cmpq	%r10, %r8
	jne	.L89
.L88:
	addq	$1, %r9
	addq	%r12, %rsi
	addq	%rbp, %rax
.LBE180:
	cmpq	%r9, 56(%rsp)
	jne	.L86
.L85:
.LBE186:
.LBE189:
	.loc 1 291 0 is_stmt 1 view .LVU228
	movq	48(%rsp), %rbx
	movl	%ebx, %eax
	addq	$1, %rbx
	addl	$1, %eax
	movq	%rbx, 48(%rsp)
	movl	%eax, 180(%rsp)
	cmpq	%rbx, 144(%rsp)
	jne	.L83
.L82:
	.loc 1 291 0 is_stmt 0 view .LVU229
.LBE173:
.LBE172:
.LBB192:
	.loc 1 294 0 is_stmt 1 view .LVU230
	movl	$.LC3, %edi
	call	__mod_input_output_MOD_saveamrfile
.LVL101:
.LBE192:
.LBB193:
	.loc 1 295 0 view .LVU231
	movl	$.LC34, %edi
	call	__mod_input_output_MOD_saveamrfile
.LVL102:
.LBE193:
	.loc 1 296 0 view .LVU232
	movl	__mod_global_parameters_MOD_mype(%rip), %r10d
	testl	%r10d, %r10d
	je	.L170
.L65:
	.loc 1 297 0 view .LVU233
	movl	$__mod_global_parameters_MOD_ierrmpi, %edx
	leaq	180(%rsp), %rsi
	movl	$__mod_global_parameters_MOD_icomm, %edi
	call	mpi_abort_
.LVL103:
	jmp	.L62
.LVL104:
	.p2align 4,,10
	.p2align 3
.L168:
.LBB194:
.LBB191:
.LBB190:
.LBB187:
.LBB182:
	.loc 1 292 0 view .LVU234
	leaq	(%rbx,%r12), %r14
	cmpq	%r14, %rbp
	jne	.L67
	movq	40(%rsp), %r14
	addq	%r13, %r14
	cmpq	%r14, %r11
	jne	.L67
.LBE182:
.LBE187:
	subq	(%rsp), %rax
	movq	112(%r8), %r14
	subq	8(%rsp), %rbx
	subq	24(%rsp), %r13
	movq	%rax, 40(%rsp)
	jmp	.L68
	.p2align 4,,10
	.p2align 3
.L111:
.LBB188:
.LBB183:
	movq	$0, 80(%rsp)
	jmp	.L66
	.p2align 4,,10
	.p2align 3
.L124:
	movq	40(%rsp), %rbx
	addq	%rcx, %rbx
	jmp	.L77
	.p2align 4,,10
	.p2align 3
.L123:
	leaq	(%r11,%r12), %rbp
	jmp	.L73
	.p2align 4,,10
	.p2align 3
.L169:
	movq	%rsi, %rdi
	call	malloc
.LVL105:
	.loc 1 292 0 is_stmt 0 view .LVU235
	pxor	%xmm0, %xmm0
	movl	$771, %r9d
	movups	%xmm0, 120(%rbp)
	movq	%rax, %r15
	movq	%rax, 104(%rbp)
	movq	$8, 120(%rbp)
	movw	%r9w, 132(%rbp)
	jmp	.L68
.LVL106:
	.p2align 4,,10
	.p2align 3
.L61:
	.loc 1 292 0 view .LVU236
.LBE183:
.LBE188:
.LBE190:
.LBE191:
.LBE194:
	.loc 1 337 0 is_stmt 1 view .LVU237
	movl	$0, __mod_global_parameters_MOD_time_advance(%rip)
	.loc 1 339 0 view .LVU238
	call	mpi_wtime_
.LVL107:
	subsd	__mod_timing_MOD_timeloop0(%rip), %xmm0
	.loc 1 341 0 view .LVU239
	movl	__mod_global_parameters_MOD_mype(%rip), %r8d
	.loc 1 339 0 view .LVU240
	movsd	%xmm0, __mod_timing_MOD_timeloop(%rip)
	.loc 1 341 0 view .LVU241
	testl	%r8d, %r8d
	je	.L171
.L99:
	.loc 1 363 0 view .LVU242
	call	mpi_wtime_
.LVL108:
.LBB195:
	.loc 1 364 0 view .LVU243
	movl	$5, %eax
.LBE195:
	movl	$5, 176(%rsp)
	.loc 1 363 0 view .LVU244
	movsd	%xmm0, __mod_timing_MOD_timeio0(%rip)
	jmp	.L101
	.p2align 4,,10
	.p2align 3
.L100:
.LBB196:
	.loc 1 364 0 view .LVU245
	movl	176(%rsp), %eax
	subl	$1, %eax
	movl	%eax, 176(%rsp)
	testl	%eax, %eax
	jle	.L172
.L101:
	.loc 1 365 0 view .LVU246
	cltq
	movl	__mod_global_parameters_MOD_it(%rip), %ecx
	cmpl	%ecx, __mod_global_parameters_MOD_itsavelast-4(,%rax,4)
	jge	.L100
	leaq	176(%rsp), %rdi
	call	__mod_input_output_MOD_saveamrfile
.LVL109:
	jmp	.L100
	.p2align 4,,10
	.p2align 3
.L172:
.LBE196:
	.loc 1 367 0 view .LVU247
	movl	__mod_global_parameters_MOD_mype(%rip), %edi
	testl	%edi, %edi
	je	.L173
.L102:
	.loc 1 368 0 view .LVU248
	call	mpi_wtime_
.LVL110:
	subsd	__mod_timing_MOD_timeio0(%rip), %xmm0
	addsd	__mod_timing_MOD_timeio_tot(%rip), %xmm0
	.loc 1 370 0 view .LVU249
	movl	__mod_global_parameters_MOD_mype(%rip), %esi
	.loc 1 368 0 view .LVU250
	movsd	%xmm0, __mod_timing_MOD_timeio_tot(%rip)
	.loc 1 370 0 view .LVU251
	testl	%esi, %esi
	je	.L174
.L103:
	.loc 1 381 0 view .LVU252
	movl	__mod_global_parameters_MOD_use_particles(%rip), %ecx
	testl	%ecx, %ecx
	jne	.L175
.L104:
	.loc 1 383 0 view .LVU253
	movl	__mod_global_parameters_MOD_use_multigrid(%rip), %edx
	testl	%edx, %edx
	jne	.L176
.L105:
.LVL111:
	.loc 1 383 0 is_stmt 0 view .LVU254
.LBE221:
.LBE225:
	.loc 1 153 0 is_stmt 1 view .LVU255
	movl	__mod_global_parameters_MOD_mype(%rip), %eax
	testl	%eax, %eax
	je	.L177
.L106:
	.loc 1 159 0 view .LVU256
	addq	$744, %rsp
	.cfi_remember_state
	.cfi_def_cfa_offset 56
	xorl	%eax, %eax
	popq	%rbx
	.cfi_def_cfa_offset 48
	popq	%rbp
	.cfi_def_cfa_offset 40
	popq	%r12
	.cfi_def_cfa_offset 32
	popq	%r13
	.cfi_def_cfa_offset 24
	popq	%r14
	.cfi_def_cfa_offset 16
	popq	%r15
	.cfi_def_cfa_offset 8
	jmp	comm_finalize_
.LVL112:
	.p2align 4,,10
	.p2align 3
.L170:
	.cfi_restore_state
.LBB226:
.LBB222:
.LBB197:
	.loc 1 296 0 view .LVU257
	movabsq	$25769803904, %rax
	leaq	192(%rsp), %rdi
	movq	$.LC8, 200(%rsp)
	movq	%rax, 192(%rsp)
	movl	$296, 208(%rsp)
	call	_gfortran_st_write
.LVL113:
	movl	$42, %edx
	movl	$.LC37, %esi
	leaq	192(%rsp), %rdi
	call	_gfortran_transfer_character_write
.LVL114:
	leaq	192(%rsp), %rdi
	call	_gfortran_st_write_done
.LVL115:
	jmp	.L65
.LVL116:
.L177:
	.loc 1 296 0 is_stmt 0 view .LVU258
.LBE197:
.LBE222:
.LBE226:
.LBB227:
	.loc 1 154 0 is_stmt 1 view .LVU259
	movl	$201326593, %ebx
	leaq	192(%rsp), %rdi
	movq	$.LC8, 200(%rsp)
	movl	$154, 208(%rsp)
	salq	$7, %rbx
	movq	%rbx, 192(%rsp)
	call	_gfortran_st_write
.LVL117:
	movl	$79, %edx
	movl	$.LC9, %esi
	leaq	192(%rsp), %rdi
	call	_gfortran_transfer_character_write
.LVL118:
	leaq	192(%rsp), %rdi
	call	_gfortran_st_write_done
.LVL119:
.LBE227:
.LBB228:
	.loc 1 155 0 view .LVU260
	movl	$6291457, %eax
	leaq	192(%rsp), %rdi
	movq	$.LC8, 200(%rsp)
	movl	$155, 208(%rsp)
	salq	$12, %rax
	movq	%rax, 192(%rsp)
	movq	$.LC10, 272(%rsp)
	movq	$11, 280(%rsp)
	call	_gfortran_st_write
.LVL120:
	movl	$22, %edx
	movl	$.LC53, %esi
	leaq	192(%rsp), %rdi
	call	_gfortran_transfer_character_write
.LVL121:
.LBB229:
	call	mpi_wtime_
.LVL122:
	subsd	104(%rsp), %xmm0
	movl	$8, %edx
	leaq	184(%rsp), %rsi
	leaq	192(%rsp), %rdi
	movsd	%xmm0, 184(%rsp)
	call	_gfortran_transfer_real_write
.LVL123:
.LBE229:
	movl	$4, %edx
	movl	$.LC12, %esi
	leaq	192(%rsp), %rdi
	call	_gfortran_transfer_character_write
.LVL124:
	leaq	192(%rsp), %rdi
	call	_gfortran_st_write_done
.LVL125:
.LBE228:
.LBB230:
	.loc 1 156 0 view .LVU261
	leaq	192(%rsp), %rdi
	movq	$.LC8, 200(%rsp)
	movl	$156, 208(%rsp)
	movq	%rbx, 192(%rsp)
	call	_gfortran_st_write
.LVL126:
	movl	$79, %edx
	movl	$.LC9, %esi
	leaq	192(%rsp), %rdi
	call	_gfortran_transfer_character_write
.LVL127:
	leaq	192(%rsp), %rdi
	call	_gfortran_st_write_done
.LVL128:
.LBE230:
	jmp	.L106
.LVL129:
.L176:
.LBB231:
.LBB223:
	.loc 1 383 0 view .LVU262
	movl	$__mod_multigrid_coupling_MOD_mg, %edi
	call	__m_octree_mg_2d_MOD_mg_timers_show
.LVL130:
	jmp	.L105
.LVL131:
.L157:
.LBB198:
	.loc 1 201 0 view .LVU263
	movl	$6291457, %ebx
	leaq	192(%rsp), %rdi
	movq	$.LC8, 200(%rsp)
	movl	$201, 208(%rsp)
	salq	$12, %rbx
	movq	$.LC16, 272(%rsp)
	movq	$11, 280(%rsp)
	movq	%rbx, 192(%rsp)
	call	_gfortran_st_write
.LVL132:
	.loc 1 200 0 view .LVU264
	movl	$39, %edx
	movl	$.LC17, %esi
	leaq	192(%rsp), %rdi
	call	_gfortran_transfer_character_write
.LVL133:
	.loc 1 201 0 view .LVU265
	movl	$8, %edx
	movl	$__mod_global_parameters_MOD_time_between_print, %esi
	leaq	192(%rsp), %rdi
	call	_gfortran_transfer_real_write
.LVL134:
	movl	$8, %edx
	movl	$.LC18, %esi
	leaq	192(%rsp), %rdi
	call	_gfortran_transfer_character_write
.LVL135:
	leaq	192(%rsp), %rdi
	call	_gfortran_st_write_done
.LVL136:
.LBE198:
.LBB199:
	.loc 1 202 0 view .LVU266
	leaq	192(%rsp), %rdi
	movq	$.LC8, 200(%rsp)
	movl	$202, 208(%rsp)
	movq	$.LC19, 272(%rsp)
	movq	$20, 280(%rsp)
	movq	%rbx, 192(%rsp)
	call	_gfortran_st_write
.LVL137:
	movl	$3, %edx
	movl	$.LC20, %esi
	leaq	192(%rsp), %rdi
	call	_gfortran_transfer_character_write
.LVL138:
	movl	$2, %edx
	movl	$.LC21, %esi
	leaq	192(%rsp), %rdi
	call	_gfortran_transfer_character_write
.LVL139:
	movl	$4, %edx
	movl	$.LC22, %esi
	leaq	192(%rsp), %rdi
	call	_gfortran_transfer_character_write
.LVL140:
	movl	$2, %edx
	movl	$.LC23, %esi
	leaq	192(%rsp), %rdi
	call	_gfortran_transfer_character_write
.LVL141:
	movl	$10, %edx
	movl	$.LC24, %esi
	leaq	192(%rsp), %rdi
	call	_gfortran_transfer_character_write
.LVL142:
	leaq	192(%rsp), %rdi
	call	_gfortran_st_write_done
.LVL143:
	jmp	.L29
.LVL144:
.L154:
	.loc 1 202 0 is_stmt 0 view .LVU267
.LBE199:
.LBE223:
.LBE231:
.LBB232:
	.loc 1 142 0 is_stmt 1 view .LVU268
	movl	$201326593, %ebx
	leaq	192(%rsp), %rdi
	movq	$.LC8, 200(%rsp)
	movl	$142, 208(%rsp)
	salq	$7, %rbx
	movq	%rbx, 192(%rsp)
	call	_gfortran_st_write
.LVL145:
	movl	$79, %edx
	movl	$.LC9, %esi
	leaq	192(%rsp), %rdi
	call	_gfortran_transfer_character_write
.LVL146:
	leaq	192(%rsp), %rdi
	call	_gfortran_st_write_done
.LVL147:
.LBE232:
.LBB233:
	.loc 1 143 0 view .LVU269
	movl	$6291457, %eax
	leaq	192(%rsp), %rdi
	movq	$.LC8, 200(%rsp)
	movl	$143, 208(%rsp)
	salq	$12, %rax
	movq	%rax, 192(%rsp)
	movq	$.LC10, 272(%rsp)
	movq	$11, 280(%rsp)
	call	_gfortran_st_write
.LVL148:
	movl	$22, %edx
	movl	$.LC11, %esi
	leaq	192(%rsp), %rdi
	call	_gfortran_transfer_character_write
.LVL149:
.LBB234:
	call	mpi_wtime_
.LVL150:
	subsd	104(%rsp), %xmm0
	movl	$8, %edx
	leaq	184(%rsp), %rsi
	leaq	192(%rsp), %rdi
	movsd	%xmm0, 184(%rsp)
	call	_gfortran_transfer_real_write
.LVL151:
.LBE234:
	movl	$4, %edx
	movl	$.LC12, %esi
	leaq	192(%rsp), %rdi
	call	_gfortran_transfer_character_write
.LVL152:
	leaq	192(%rsp), %rdi
	call	_gfortran_st_write_done
.LVL153:
.LBE233:
.LBB235:
	.loc 1 144 0 view .LVU270
	leaq	192(%rsp), %rdi
	movq	$.LC8, 200(%rsp)
	movl	$144, 208(%rsp)
	movq	%rbx, 192(%rsp)
	call	_gfortran_st_write
.LVL154:
	movl	$79, %edx
	movl	$.LC9, %esi
	leaq	192(%rsp), %rdi
	call	_gfortran_transfer_character_write
.LVL155:
	leaq	192(%rsp), %rdi
	call	_gfortran_st_write_done
.LVL156:
.LBE235:
	jmp	.L23
.LVL157:
.L175:
.LBB236:
.LBB224:
	.loc 1 381 0 view .LVU271
	call	__mod_particle_base_MOD_time_spent_on_particles
.LVL158:
	jmp	.L104
.L174:
.LBB200:
	.loc 1 372 0 view .LVU272
	movl	$6291457, %ebx
	leaq	192(%rsp), %rdi
	movq	$.LC8, 200(%rsp)
	movl	$372, 208(%rsp)
	salq	$12, %rbx
	movq	$.LC38, 272(%rsp)
	movq	$11, 280(%rsp)
	movq	%rbx, 192(%rsp)
	call	_gfortran_st_write
.LVL159:
	.loc 1 371 0 view .LVU273
	movl	$30, %edx
	movl	$.LC50, %esi
	leaq	192(%rsp), %rdi
	call	_gfortran_transfer_character_write
.LVL160:
	movl	$8, %edx
	movl	$__mod_timing_MOD_timeio_tot, %esi
	leaq	192(%rsp), %rdi
	call	_gfortran_transfer_real_write
.LVL161:
	.loc 1 372 0 view .LVU274
	movl	$4, %edx
	movl	$.LC12, %esi
	leaq	192(%rsp), %rdi
	call	_gfortran_transfer_character_write
.LVL162:
	leaq	192(%rsp), %rdi
	call	_gfortran_st_write_done
.LVL163:
.LBE200:
.LBB201:
	.loc 1 374 0 view .LVU275
	leaq	192(%rsp), %rdi
	movq	$.LC8, 200(%rsp)
	movl	$374, 208(%rsp)
	movq	$.LC38, 272(%rsp)
	movq	$11, 280(%rsp)
	movq	%rbx, 192(%rsp)
	call	_gfortran_st_write
.LVL164:
	.loc 1 373 0 view .LVU276
	movl	$30, %edx
	movl	$.LC51, %esi
	leaq	192(%rsp), %rdi
	call	_gfortran_transfer_character_write
.LVL165:
.LBB202:
	.loc 1 374 0 view .LVU277
	call	mpi_wtime_
.LVL166:
	subsd	__mod_timing_MOD_time_in(%rip), %xmm0
	movl	$8, %edx
	leaq	184(%rsp), %rsi
	leaq	192(%rsp), %rdi
	movsd	%xmm0, 184(%rsp)
	call	_gfortran_transfer_real_write
.LVL167:
.LBE202:
	movl	$4, %edx
	movl	$.LC12, %esi
	leaq	192(%rsp), %rdi
	call	_gfortran_transfer_character_write
.LVL168:
	leaq	192(%rsp), %rdi
	call	_gfortran_st_write_done
.LVL169:
.LBE201:
.LBB203:
	.loc 1 376 0 view .LVU278
	leaq	192(%rsp), %rdi
	movq	$.LC8, 200(%rsp)
	movl	$376, 208(%rsp)
	movq	$.LC52, 272(%rsp)
	movq	$29, 280(%rsp)
	movq	%rbx, 192(%rsp)
	call	_gfortran_st_write
.LVL170:
	.loc 1 375 0 view .LVU279
	movl	$2, %edx
	movl	$.LC26, %esi
	leaq	192(%rsp), %rdi
	call	_gfortran_transfer_character_write
.LVL171:
	movl	$4, %edx
	movl	$__mod_global_parameters_MOD_it, %esi
	leaq	192(%rsp), %rdi
	call	_gfortran_transfer_integer_write
.LVL172:
	movl	$8, %edx
	movl	$__mod_global_parameters_MOD_global_time, %esi
	leaq	192(%rsp), %rdi
	call	_gfortran_transfer_real_write
.LVL173:
	movl	$8, %edx
	movl	$__mod_global_parameters_MOD_dt, %esi
	leaq	192(%rsp), %rdi
	call	_gfortran_transfer_real_write
.LVL174:
.LBB204:
	.loc 1 376 0 view .LVU280
	movsd	__mod_timing_MOD_timeio0(%rip), %xmm0
	subsd	__mod_timing_MOD_time_in(%rip), %xmm0
	leaq	192(%rsp), %rdi
	movl	$8, %edx
	leaq	184(%rsp), %rsi
	movsd	%xmm0, 184(%rsp)
	call	_gfortran_transfer_real_write
.LVL175:
.LBE204:
	leaq	192(%rsp), %rdi
	call	_gfortran_st_write_done
.LVL176:
	jmp	.L103
.L173:
.LBE203:
	.loc 1 367 0 view .LVU281
	movl	$__mod_global_parameters_MOD_ierrmpi, %esi
	movl	$__mod_global_parameters_MOD_log_fh, %edi
	call	mpi_file_close_
.LVL177:
	jmp	.L102
.L171:
.LBB205:
	.loc 1 342 0 view .LVU282
	movl	$6291457, %ebx
	leaq	192(%rsp), %rdi
	movq	$.LC8, 200(%rsp)
	movl	$342, 208(%rsp)
	salq	$12, %rbx
	movq	$.LC38, 272(%rsp)
	movq	$11, 280(%rsp)
	movq	%rbx, 192(%rsp)
	call	_gfortran_st_write
.LVL178:
	movl	$30, %edx
	movl	$.LC39, %esi
	leaq	192(%rsp), %rdi
	call	_gfortran_transfer_character_write
.LVL179:
	movl	$8, %edx
	movl	$__mod_timing_MOD_timeloop, %esi
	leaq	192(%rsp), %rdi
	call	_gfortran_transfer_real_write
.LVL180:
	movl	$4, %edx
	movl	$.LC12, %esi
	leaq	192(%rsp), %rdi
	call	_gfortran_transfer_character_write
.LVL181:
	leaq	192(%rsp), %rdi
	call	_gfortran_st_write_done
.LVL182:
.LBE205:
.LBB206:
	.loc 1 344 0 view .LVU283
	leaq	192(%rsp), %rdi
	movq	$.LC8, 200(%rsp)
	movl	$344, 208(%rsp)
	movq	$.LC38, 272(%rsp)
	movq	$11, 280(%rsp)
	movq	%rbx, 192(%rsp)
	call	_gfortran_st_write
.LVL183:
	.loc 1 343 0 view .LVU284
	movl	$30, %edx
	movl	$.LC40, %esi
	leaq	192(%rsp), %rdi
	call	_gfortran_transfer_character_write
.LVL184:
	movl	$8, %edx
	movl	$__mod_timing_MOD_timegr_tot, %esi
	leaq	192(%rsp), %rdi
	call	_gfortran_transfer_real_write
.LVL185:
	.loc 1 344 0 view .LVU285
	movl	$4, %edx
	movl	$.LC12, %esi
	leaq	192(%rsp), %rdi
	call	_gfortran_transfer_character_write
.LVL186:
	leaq	192(%rsp), %rdi
	call	_gfortran_st_write_done
.LVL187:
.LBE206:
.LBB207:
	.loc 1 346 0 view .LVU286
	leaq	192(%rsp), %rdi
	movq	$.LC8, 200(%rsp)
	movl	$346, 208(%rsp)
	movq	$.LC41, 272(%rsp)
	movq	$11, 280(%rsp)
	movq	%rbx, 192(%rsp)
	call	_gfortran_st_write
.LVL188:
	.loc 1 345 0 view .LVU287
	movl	$30, %edx
	movl	$.LC42, %esi
	leaq	192(%rsp), %rdi
	call	_gfortran_transfer_character_write
.LVL189:
.LBB208:
	.loc 1 346 0 view .LVU288
	leaq	184(%rsp), %rsi
	movl	$8, %edx
	leaq	192(%rsp), %rdi
	movsd	.LC43(%rip), %xmm0
	mulsd	__mod_timing_MOD_timegr_tot(%rip), %xmm0
	divsd	__mod_timing_MOD_timeloop(%rip), %xmm0
	movsd	%xmm0, 184(%rsp)
	call	_gfortran_transfer_real_write
.LVL190:
.LBE208:
	movl	$2, %edx
	movl	$.LC44, %esi
	leaq	192(%rsp), %rdi
	call	_gfortran_transfer_character_write
.LVL191:
	leaq	192(%rsp), %rdi
	call	_gfortran_st_write_done
.LVL192:
.LBE207:
.LBB209:
	.loc 1 348 0 view .LVU289
	leaq	192(%rsp), %rdi
	movq	$.LC8, 200(%rsp)
	movl	$348, 208(%rsp)
	movq	$.LC38, 272(%rsp)
	movq	$11, 280(%rsp)
	movq	%rbx, 192(%rsp)
	call	_gfortran_st_write
.LVL193:
	.loc 1 347 0 view .LVU290
	movl	$30, %edx
	movl	$.LC45, %esi
	leaq	192(%rsp), %rdi
	call	_gfortran_transfer_character_write
.LVL194:
	movl	$8, %edx
	movl	$__mod_timing_MOD_timeio_tot, %esi
	leaq	192(%rsp), %rdi
	call	_gfortran_transfer_real_write
.LVL195:
	.loc 1 348 0 view .LVU291
	movl	$4, %edx
	movl	$.LC12, %esi
	leaq	192(%rsp), %rdi
	call	_gfortran_transfer_character_write
.LVL196:
	leaq	192(%rsp), %rdi
	call	_gfortran_st_write_done
.LVL197:
.LBE209:
.LBB210:
	.loc 1 350 0 view .LVU292
	leaq	192(%rsp), %rdi
	movq	$.LC8, 200(%rsp)
	movl	$350, 208(%rsp)
	movq	$.LC41, 272(%rsp)
	movq	$11, 280(%rsp)
	movq	%rbx, 192(%rsp)
	call	_gfortran_st_write
.LVL198:
	.loc 1 349 0 view .LVU293
	movl	$30, %edx
	movl	$.LC42, %esi
	leaq	192(%rsp), %rdi
	call	_gfortran_transfer_character_write
.LVL199:
.LBB211:
	.loc 1 350 0 view .LVU294
	leaq	184(%rsp), %rsi
	movl	$8, %edx
	leaq	192(%rsp), %rdi
	movsd	.LC43(%rip), %xmm0
	mulsd	__mod_timing_MOD_timeio_tot(%rip), %xmm0
	divsd	__mod_timing_MOD_timeloop(%rip), %xmm0
	movsd	%xmm0, 184(%rsp)
	call	_gfortran_transfer_real_write
.LVL200:
.LBE211:
	movl	$2, %edx
	movl	$.LC44, %esi
	leaq	192(%rsp), %rdi
	call	_gfortran_transfer_character_write
.LVL201:
	leaq	192(%rsp), %rdi
	call	_gfortran_st_write_done
.LVL202:
.LBE210:
.LBB212:
	.loc 1 351 0 view .LVU295
	leaq	192(%rsp), %rdi
	movq	$.LC8, 200(%rsp)
	movl	$351, 208(%rsp)
	movq	$.LC38, 272(%rsp)
	movq	$11, 280(%rsp)
	movq	%rbx, 192(%rsp)
	call	_gfortran_st_write
.LVL203:
	movl	$30, %edx
	movl	$.LC46, %esi
	leaq	192(%rsp), %rdi
	call	_gfortran_transfer_character_write
.LVL204:
	movl	$8, %edx
	movl	$__mod_global_parameters_MOD_time_bc, %esi
	leaq	192(%rsp), %rdi
	call	_gfortran_transfer_real_write
.LVL205:
	movl	$4, %edx
	movl	$.LC12, %esi
	leaq	192(%rsp), %rdi
	call	_gfortran_transfer_character_write
.LVL206:
	leaq	192(%rsp), %rdi
	call	_gfortran_st_write_done
.LVL207:
.LBE212:
.LBB213:
	.loc 1 353 0 view .LVU296
	leaq	192(%rsp), %rdi
	movq	$.LC8, 200(%rsp)
	movl	$353, 208(%rsp)
	movq	$.LC41, 272(%rsp)
	movq	$11, 280(%rsp)
	movq	%rbx, 192(%rsp)
	call	_gfortran_st_write
.LVL208:
	.loc 1 352 0 view .LVU297
	movl	$30, %edx
	movl	$.LC42, %esi
	leaq	192(%rsp), %rdi
	call	_gfortran_transfer_character_write
.LVL209:
.LBB214:
	.loc 1 353 0 view .LVU298
	leaq	184(%rsp), %rsi
	movl	$8, %edx
	leaq	192(%rsp), %rdi
	movsd	.LC43(%rip), %xmm0
	mulsd	__mod_global_parameters_MOD_time_bc(%rip), %xmm0
	divsd	__mod_timing_MOD_timeloop(%rip), %xmm0
	movsd	%xmm0, 184(%rsp)
	call	_gfortran_transfer_real_write
.LVL210:
.LBE214:
	movl	$2, %edx
	movl	$.LC44, %esi
	leaq	192(%rsp), %rdi
	call	_gfortran_transfer_character_write
.LVL211:
	leaq	192(%rsp), %rdi
	call	_gfortran_st_write_done
.LVL212:
.LBE213:
.LBB215:
	.loc 1 355 0 view .LVU299
	leaq	192(%rsp), %rdi
	movq	$.LC8, 200(%rsp)
	movl	$355, 208(%rsp)
	movq	$.LC38, 272(%rsp)
	movq	$11, 280(%rsp)
	movq	%rbx, 192(%rsp)
	call	_gfortran_st_write
.LVL213:
	.loc 1 354 0 view .LVU300
	movl	$30, %edx
	movl	$.LC47, %esi
	leaq	192(%rsp), %rdi
	call	_gfortran_transfer_character_write
.LVL214:
.LBB216:
	.loc 1 355 0 view .LVU301
	movsd	__mod_timing_MOD_timeloop(%rip), %xmm0
	movl	$8, %edx
	subsd	__mod_timing_MOD_timeio_tot(%rip), %xmm0
	subsd	__mod_timing_MOD_timegr_tot(%rip), %xmm0
	subsd	__mod_global_parameters_MOD_time_bc(%rip), %xmm0
	leaq	184(%rsp), %rsi
	leaq	192(%rsp), %rdi
	movsd	%xmm0, 184(%rsp)
	call	_gfortran_transfer_real_write
.LVL215:
.LBE216:
	movl	$4, %edx
	movl	$.LC12, %esi
	leaq	192(%rsp), %rdi
	call	_gfortran_transfer_character_write
.LVL216:
	leaq	192(%rsp), %rdi
	call	_gfortran_st_write_done
.LVL217:
.LBE215:
.LBB217:
	.loc 1 357 0 view .LVU302
	leaq	192(%rsp), %rdi
	movq	$.LC8, 200(%rsp)
	movl	$357, 208(%rsp)
	movq	$.LC41, 272(%rsp)
	movq	$11, 280(%rsp)
	movq	%rbx, 192(%rsp)
	call	_gfortran_st_write
.LVL218:
	.loc 1 356 0 view .LVU303
	movl	$30, %edx
	movl	$.LC42, %esi
	leaq	192(%rsp), %rdi
	call	_gfortran_transfer_character_write
.LVL219:
.LBB218:
	.loc 1 357 0 view .LVU304
	movsd	__mod_timing_MOD_timeloop(%rip), %xmm1
	movl	$8, %edx
	leaq	184(%rsp), %rsi
	leaq	192(%rsp), %rdi
	movapd	%xmm1, %xmm0
	subsd	__mod_timing_MOD_timeio_tot(%rip), %xmm0
	subsd	__mod_timing_MOD_timegr_tot(%rip), %xmm0
	subsd	__mod_global_parameters_MOD_time_bc(%rip), %xmm0
	mulsd	.LC43(%rip), %xmm0
	divsd	%xmm1, %xmm0
	movsd	%xmm0, 184(%rsp)
	call	_gfortran_transfer_real_write
.LVL220:
.LBE218:
	movl	$2, %edx
	movl	$.LC44, %esi
	leaq	192(%rsp), %rdi
	call	_gfortran_transfer_character_write
.LVL221:
	leaq	192(%rsp), %rdi
	call	_gfortran_st_write_done
.LVL222:
.LBE217:
.LBB219:
	.loc 1 359 0 view .LVU305
	leaq	192(%rsp), %rdi
	movq	$.LC8, 200(%rsp)
	movl	$359, 208(%rsp)
	movq	$.LC48, 272(%rsp)
	movq	$11, 280(%rsp)
	movq	%rbx, 192(%rsp)
	call	_gfortran_st_write
.LVL223:
	.loc 1 358 0 view .LVU306
	movl	$30, %edx
	movl	$.LC49, %esi
	leaq	192(%rsp), %rdi
	call	_gfortran_transfer_character_write
.LVL224:
.LBB220:
	.loc 1 359 0 view .LVU307
	pxor	%xmm1, %xmm1
	pxor	%xmm0, %xmm0
	leaq	192(%rsp), %rdi
	cvtsi2sd	__mod_global_parameters_MOD_nstep(%rip), %xmm1
	movl	$8, %edx
	leaq	184(%rsp), %rsi
	cvtsi2sdq	112(%rsp), %xmm0
	mulsd	%xmm1, %xmm0
	pxor	%xmm1, %xmm1
	cvtsi2sd	__mod_global_parameters_MOD_npe(%rip), %xmm1
	divsd	%xmm1, %xmm0
	divsd	__mod_timing_MOD_timeloop(%rip), %xmm0
	movsd	%xmm0, 184(%rsp)
	call	_gfortran_transfer_real_write
.LVL225:
.LBE220:
	leaq	192(%rsp), %rdi
	call	_gfortran_st_write_done
.LVL226:
	jmp	.L99
.LVL227:
.L161:
	.loc 1 359 0 is_stmt 0 view .LVU308
.LBE219:
.LBE224:
.LBE236:
	.loc 1 124 0 is_stmt 1 discriminator 1 view .LVU309
	call	__mod_multigrid_coupling_MOD_mg_setup_multigrid
.LVL228:
	jmp	.L21
.L149:
	.loc 1 63 0 discriminator 1 view .LVU310
	xorl	%eax, %eax
	call	modify_ic_
.LVL229:
	jmp	.L6
.L150:
	.loc 1 73 0 view .LVU311
	xorl	%eax, %eax
	call	settree_
.LVL230:
	jmp	.L8
.L152:
	.loc 1 80 0 view .LVU312
	movl	$part_file_exists.4540, %edi
	call	__mod_particle_base_MOD_read_particles_snapshot
.LVL231:
	.loc 1 81 0 view .LVU313
	cmpl	$0, part_file_exists.4540(%rip)
	je	.L178
.L10:
	.loc 1 82 0 view .LVU314
	cmpl	$0, __mod_global_parameters_MOD_convert(%rip)
	jne	.L179
	.loc 1 90 0 view .LVU315
	cmpl	$0, __mod_global_parameters_MOD_use_multigrid(%rip)
	je	.L14
.L108:
	call	__mod_multigrid_coupling_MOD_mg_setup_multigrid
.LVL232:
	jmp	.L12
.L151:
	.loc 1 76 0 discriminator 1 view .LVU316
	call	__mod_fix_conserve_MOD_allocatebflux
.LVL233:
	jmp	.L8
.L178:
	.loc 1 81 0 discriminator 1 view .LVU317
	call	__mod_particles_MOD_particles_create
.LVL234:
	jmp	.L10
.L153:
	.loc 1 94 0 view .LVU318
	cmpl	$1, __mod_global_parameters_MOD_npe(%rip)
	je	.L15
	.loc 1 94 0 is_stmt 0 discriminator 1 view .LVU319
	xorl	%r8d, %r8d
	movl	$.LC5, %ecx
	movl	$3, %edx
	movl	$__mod_global_parameters_MOD_convert_type, %esi
	movl	$131, %edi
	call	_gfortran_string_index
.LVL235:
	testl	%eax, %eax
	jle	.L180
.L15:
	.loc 1 99 0 is_stmt 1 view .LVU320
	cmpq	$0, __mod_usr_methods_MOD_usr_process_grid(%rip)
	je	.L181
.L16:
	.loc 1 101 0 view .LVU321
	movl	$__mod_global_parameters_MOD_global_time, %esi
	movl	$__mod_global_parameters_MOD_it, %edi
	call	__mod_advance_MOD_process
.LVL236:
.L17:
	.loc 1 104 0 view .LVU322
	cmpl	$0, __mod_global_parameters_MOD_autoconvert(%rip)
	movl	__mod_global_parameters_MOD_snapshotnext(%rip), %eax
	jne	.L18
	.loc 1 104 0 is_stmt 0 discriminator 2 view .LVU323
	testl	%eax, %eax
	jle	.L19
.L18:
	.loc 1 104 0 discriminator 3 view .LVU324
	subl	$1, %eax
	movl	%eax, __mod_global_parameters_MOD_snapshotnext(%rip)
.L19:
	.loc 1 106 0 is_stmt 1 view .LVU325
	movq	__mod_physics_MOD_phys_special_advance(%rip), %rax
	testq	%rax, %rax
	je	.L20
	.loc 1 108 0 view .LVU326
	movq	__mod_physicaldata_MOD_ps(%rip), %rsi
	movl	$__mod_global_parameters_MOD_global_time, %edi
	call	*%rax
.LVL237:
.L20:
	.loc 1 111 0 view .LVU327
	xorl	%eax, %eax
	call	generate_plotfile_
.LVL238:
.L147:
	.loc 1 112 0 view .LVU328
	xorl	%eax, %eax
	call	comm_finalize_
.LVL239:
	.loc 1 113 0 view .LVU329
	xorl	%edx, %edx
	xorl	%esi, %esi
	xorl	%edi, %edi
	call	_gfortran_stop_string
.LVL240:
.L181:
	.loc 1 99 0 discriminator 1 view .LVU330
	cmpq	$0, __mod_usr_methods_MOD_usr_process_global(%rip)
	jne	.L16
	jmp	.L17
.L179:
	.loc 1 83 0 view .LVU331
	call	__mod_particle_base_MOD_handle_particles
.LVL241:
	.loc 1 84 0 view .LVU332
	call	__mod_particle_base_MOD_time_spent_on_particles
.LVL242:
	jmp	.L147
.L180:
	.loc 1 94 0 discriminator 2 view .LVU333
	movl	$.LC6, %ecx
	movl	$4, %edx
	movl	$__mod_global_parameters_MOD_convert_type, %esi
	movl	$131, %edi
	call	_gfortran_compare_string
.LVL243:
	testl	%eax, %eax
	je	.L15
	.loc 1 95 0 view .LVU334
	movl	$34, %esi
	movl	$.LC7, %edi
	call	mpistop_
.LVL244:
	jmp	.L15
	.cfi_endproc
.LFE0:
	.size	MAIN__, .-MAIN__
	.section	.text.startup,"ax",@progbits
	.p2align 4,,15
	.globl	main
	.type	main, @function
main:
.LVL245:
.LFB4:
	.loc 1 6 0 view -0
	.cfi_startproc
	.loc 1 6 0 is_stmt 0 view .LVU336
	subq	$8, %rsp
	.cfi_def_cfa_offset 16
	.loc 1 6 0 is_stmt 1 view .LVU337
	call	_gfortran_set_args
.LVL246:
	.loc 1 6 0 is_stmt 0 view .LVU338
	movl	$options.31.4636, %esi
	movl	$7, %edi
	call	_gfortran_set_options
.LVL247:
	call	MAIN__
.LVL248:
	xorl	%eax, %eax
	addq	$8, %rsp
	.cfi_def_cfa_offset 8
	ret
	.cfi_endproc
.LFE4:
	.size	main, .-main
	.local	part_file_exists.4540
	.comm	part_file_exists.4540,4,4
	.section	.rodata
	.align 16
	.type	options.31.4636, @object
	.size	options.31.4636, 28
options.31.4636:
	.long	68
	.long	8191
	.long	0
	.long	1
	.long	1
	.long	0
	.long	31
	.comm	mpi_fortran_weights_empty_,4,16
	.comm	mpi_fortran_unweighted_,4,16
	.comm	mpi_fortran_statuses_ignore_,24,16
	.comm	mpi_fortran_status_ignore_,24,16
	.comm	mpi_fortran_in_place_,4,16
	.comm	mpi_fortran_errcodes_ignore_,4,16
	.comm	mpi_fortran_bottom_,4,16
	.comm	mpi_fortran_argvs_null_,1,16
	.comm	mpi_fortran_argv_null_,1,16
	.section	.rodata.cst8,"aM",@progbits,8
	.align 8
.LC1:
	.long	2726797102
	.long	-729988434
	.align 8
.LC13:
	.long	2167269905
	.long	1030854553
	.align 8
.LC14:
	.long	0
	.long	1127219200
	.section	.rodata.cst16,"aM",@progbits,16
	.align 16
.LC15:
	.long	4294967295
	.long	2147483647
	.long	0
	.long	0
	.section	.rodata.cst8
	.align 8
.LC35:
	.long	0
	.long	1074790400
	.align 8
.LC43:
	.long	0
	.long	1079574528
	.text
.Letext0:
	.file 2 "<built-in>"
	.section	.note.GNU-stack,"",@progbits
